; Function Attrs: mustprogress uwtable
define void @_ZNK4cvc58internal7Printer8toStreamERSoRKNS0_9UnsatCoreE(ptr noundef nonnull align 8 dereferenceable(8) %this, ptr noundef nonnull align 8 dereferenceable(8) %out, ptr noundef nonnull align 8 dereferenceable(56) %core) unnamed_addr #4 align 2 personality ptr @__gxx_personality_v0 {
entry:
  %agg.tmp = alloca %"class.cvc5::internal::NodeTemplate.2", align 8
  %call = tail call ptr @_ZNK4cvc58internal9UnsatCore5beginEv(ptr noundef nonnull align 8 dereferenceable(56) %core)
  %call213 = tail call ptr @_ZNK4cvc58internal9UnsatCore3endEv(ptr noundef nonnull align 8 dereferenceable(56) %core)
  %cmp.i.not14 = icmp eq ptr %call, %call213
  br i1 %cmp.i.not14, label %for.end, label %for.body

for.body:                                         ; preds = %entry, %_ZN4cvc58internal12NodeTemplateILb1EED2Ev.exit
  %i.sroa.0.015 = phi ptr [ %incdec.ptr.i, %_ZN4cvc58internal12NodeTemplateILb1EED2Ev.exit ], [ %call, %entry ]
  %0 = load ptr, ptr %i.sroa.0.015, align 8
  store ptr %0, ptr %agg.tmp, align 8
  %bf.load.i.i = load i64, ptr %0, align 8
  %bf.lshr.i.i = lshr i64 %bf.load.i.i, 40
  %1 = trunc i64 %bf.lshr.i.i to i32
  %bf.cast.i.i = and i32 %1, 1048575
  %cmp.i.i = icmp ult i32 %bf.cast.i.i, 1048574
  br i1 %cmp.i.i, label %if.then.i.i, label %if.else.i.i

if.then.i.i:                                      ; preds = %for.body
  %bf.value.i.i = add i64 %bf.load.i.i, 1099511627776
  %bf.shl.i.i = and i64 %bf.value.i.i, 1152920405095219200
  %bf.clear7.i.i = and i64 %bf.load.i.i, -1152920405095219201
  %bf.set.i.i = or disjoint i64 %bf.shl.i.i, %bf.clear7.i.i
  store i64 %bf.set.i.i, ptr %0, align 8
  br label %_ZN4cvc58internal12NodeTemplateILb1EEC2ERKS2_.exit

if.else.i.i:                                      ; preds = %for.body
  %cmp12.i.i = icmp eq i32 %bf.cast.i.i, 1048574
  br i1 %cmp12.i.i, label %if.then13.i.i, label %_ZN4cvc58internal12NodeTemplateILb1EEC2ERKS2_.exit

if.then13.i.i:                                    ; preds = %if.else.i.i
  %bf.set23.i.i = or i64 %bf.load.i.i, 1152920405095219200
  store i64 %bf.set23.i.i, ptr %0, align 8
  call void @_ZN4cvc58internal4expr9NodeValue20markRefCountMaxedOutEv(ptr noundef nonnull align 8 dereferenceable(16) %0)
  br label %_ZN4cvc58internal12NodeTemplateILb1EEC2ERKS2_.exit

_ZN4cvc58internal12NodeTemplateILb1EEC2ERKS2_.exit: ; preds = %if.then.i.i, %if.else.i.i, %if.then13.i.i
  %vtable = load ptr, ptr %this, align 8
  %vfn = getelementptr inbounds i8, ptr %vtable, i64 128
  %2 = load ptr, ptr %vfn, align 8
  invoke void %2(ptr noundef nonnull align 8 dereferenceable(8) %this, ptr noundef nonnull align 8 dereferenceable(8) %out, ptr noundef nonnull %agg.tmp)
          to label %invoke.cont unwind label %lpad

invoke.cont:                                      ; preds = %_ZN4cvc58internal12NodeTemplateILb1EEC2ERKS2_.exit
  %3 = load ptr, ptr %agg.tmp, align 8
  %bf.load.i.i3 = load i64, ptr %3, align 8
  %4 = and i64 %bf.load.i.i3, 1152920405095219200
  %cmp.not.i.i = icmp eq i64 %4, 1152920405095219200
  br i1 %cmp.not.i.i, label %_ZN4cvc58internal12NodeTemplateILb1EED2Ev.exit, label %if.then.i.i4

if.then.i.i4:                                     ; preds = %invoke.cont
  %bf.value.i.i5 = add i64 %bf.load.i.i3, 1152920405095219200
  %bf.shl.i.i6 = and i64 %bf.value.i.i5, 1152920405095219200
  %bf.clear7.i.i7 = and i64 %bf.load.i.i3, -1152920405095219201
  %bf.set.i.i8 = or disjoint i64 %bf.shl.i.i6, %bf.clear7.i.i7
  store i64 %bf.set.i.i8, ptr %3, align 8
  %cmp12.i.i9 = icmp eq i64 %bf.shl.i.i6, 0
  br i1 %cmp12.i.i9, label %if.then13.i.i10, label %_ZN4cvc58internal12NodeTemplateILb1EED2Ev.exit

if.then13.i.i10:                                  ; preds = %if.then.i.i4
  invoke void @_ZN4cvc58internal4expr9NodeValue15markForDeletionEv(ptr noundef nonnull align 8 dereferenceable(16) %3)
          to label %_ZN4cvc58internal12NodeTemplateILb1EED2Ev.exit unwind label %terminate.lpad.i

terminate.lpad.i:                                 ; preds = %if.then13.i.i10
  %5 = landingpad { ptr, i32 }
          catch ptr null
  %6 = extractvalue { ptr, i32 } %5, 0
  call void @__clang_call_terminate(ptr %6) #18
  unreachable

_ZN4cvc58internal12NodeTemplateILb1EED2Ev.exit:   ; preds = %invoke.cont, %if.then.i.i4, %if.then13.i.i10
  %call6 = call noundef nonnull align 8 dereferenceable(8) ptr @_ZNSolsEPFRSoS_E(ptr noundef nonnull align 8 dereferenceable(8) %out, ptr noundef nonnull @_ZSt4endlIcSt11char_traitsIcEERSt13basic_ostreamIT_T0_ES6_)
  %incdec.ptr.i = getelementptr inbounds i8, ptr %i.sroa.0.015, i64 8
  %call2 = call ptr @_ZNK4cvc58internal9UnsatCore3endEv(ptr noundef nonnull align 8 dereferenceable(56) %core)
  %cmp.i.not = icmp eq ptr %incdec.ptr.i, %call2
  br i1 %cmp.i.not, label %for.end, label %for.body, !llvm.loop !4

lpad:                                             ; preds = %_ZN4cvc58internal12NodeTemplateILb1EEC2ERKS2_.exit
  %7 = landingpad { ptr, i32 }
          cleanup
  call void @_ZN4cvc58internal12NodeTemplateILb1EED2Ev(ptr noundef nonnull align 8 dereferenceable(8) %agg.tmp) #16
  resume { ptr, i32 } %7

for.end:                                          ; preds = %_ZN4cvc58internal12NodeTemplateILb1EED2Ev.exit, %entry
  ret void
}